; Function Attrs: nounwind uwtable
define internal void @destruct_decoder(ptr noundef %0, ptr readnone captures(none) %1) #2 {
  %3 = icmp eq ptr %0, null
  br i1 %3, label %OSSL_DECODER_free.exit, label %4

4:                                                ; preds = %2
  %5 = getelementptr inbounds nuw i8, ptr %0, i64 40
  %6 = atomicrmw sub ptr %5, i32 1 release, align 4
  %7 = icmp eq i32 %6, 1
  br i1 %7, label %CRYPTO_DOWN_REF.exit.thread.i, label %CRYPTO_DOWN_REF.exit.i

CRYPTO_DOWN_REF.exit.thread.i:                    ; preds = %4
  fence acquire
  br label %9

CRYPTO_DOWN_REF.exit.i:                           ; preds = %4
  %8 = icmp sgt i32 %6, 1
  br i1 %8, label %OSSL_DECODER_free.exit, label %9

9:                                                ; preds = %CRYPTO_DOWN_REF.exit.i, %CRYPTO_DOWN_REF.exit.thread.i
  %10 = getelementptr inbounds nuw i8, ptr %0, i64 16
  %11 = load ptr, ptr %10, align 8, !tbaa !3
  tail call void @CRYPTO_free(ptr noundef %11, ptr noundef nonnull @.str, i32 noundef 70) #8
  %12 = getelementptr inbounds nuw i8, ptr %0, i64 32
  %13 = load ptr, ptr %12, align 8, !tbaa !15
  tail call void @ossl_property_free(ptr noundef %13) #8
  %14 = load ptr, ptr %0, align 8, !tbaa !16
  tail call void @ossl_provider_free(ptr noundef %14) #8
  tail call void @CRYPTO_free(ptr noundef nonnull %0, ptr noundef nonnull @.str, i32 noundef 74) #8
  br label %OSSL_DECODER_free.exit

OSSL_DECODER_free.exit:                           ; preds = %2, %CRYPTO_DOWN_REF.exit.i, %9
  ret void
}